target datalayout = "e-m:e-p270:32:32-p271:32:32-p272:64:64-i64:64-i128:128-f80:128-n8:16:32:64-S128"
target triple = "x86_64-unknown-linux-gnu"

%"class.absl::Duration" = type { %"class.absl::Duration::HiRep", i32 }
%"class.absl::Duration::HiRep" = type { i32, i32 }
%class.anon.86 = type { ptr }

; Function Attrs: mustprogress nounwind uwtable
define linkonce_odr dso_local noundef nonnull align 4 dereferenceable(8) ptr @_ZN4absl8Duration5HiRepaSEl(ptr noundef nonnull align 4 dereferenceable(8) %this, i64 noundef %value) #7 comdat align 2 {
entry:
  %this.addr = alloca ptr, align 8
  %value.addr = alloca i64, align 8
  %unsigned_value = alloca i64, align 8
  store ptr %this, ptr %this.addr, align 8
  store i64 %value, ptr %value.addr, align 8
  %this1 = load ptr, ptr %this.addr, align 8
  %0 = load i64, ptr %value.addr, align 8
  store i64 %0, ptr %unsigned_value, align 8
  %1 = load i64, ptr %unsigned_value, align 8
  %shr = lshr i64 %1, 32
  %conv = trunc i64 %shr to i32
  %hi_ = getelementptr inbounds %"class.absl::Duration::HiRep", ptr %this1, i32 0, i32 1
  store i32 %conv, ptr %hi_, align 4
  %2 = load i64, ptr %unsigned_value, align 8
  %conv2 = trunc i64 %2 to i32
  %lo_ = getelementptr inbounds %"class.absl::Duration::HiRep", ptr %this1, i32 0, i32 0
  store i32 %conv2, ptr %lo_, align 4
  ret ptr %this1
}

; Function Attrs: mustprogress uwtable
define linkonce_odr dso_local void @_ZN4absl8Duration5HiRepC2El(ptr noundef nonnull align 4 dereferenceable(8) %this, i64 noundef %value) unnamed_addr #4 comdat align 2 {
entry:
  %this.addr = alloca ptr, align 8
  %value.addr = alloca i64, align 8
  store ptr %this, ptr %this.addr, align 8
  store i64 %value, ptr %value.addr, align 8
  %this1 = load ptr, ptr %this.addr, align 8
  %lo_ = getelementptr inbounds %"class.absl::Duration::HiRep", ptr %this1, i32 0, i32 0
  store i32 0, ptr %lo_, align 4
  %hi_ = getelementptr inbounds %"class.absl::Duration::HiRep", ptr %this1, i32 0, i32 1
  store i32 0, ptr %hi_, align 4
  %0 = load i64, ptr %value.addr, align 8
  %call = call noundef nonnull align 4 dereferenceable(8) ptr @_ZN4absl8Duration5HiRepaSEl(ptr noundef nonnull align 4 dereferenceable(8) %this1, i64 noundef %0)
  ret void
}

; Function Attrs: mustprogress uwtable
define linkonce_odr dso_local void @_ZN4absl8DurationC2Elj(ptr noundef nonnull align 4 dereferenceable(12) %this, i64 noundef %hi, i32 noundef %lo) unnamed_addr #4 comdat align 2 {
entry:
  %this.addr = alloca ptr, align 8
  %hi.addr = alloca i64, align 8
  %lo.addr = alloca i32, align 4
  store ptr %this, ptr %this.addr, align 8
  store i64 %hi, ptr %hi.addr, align 8
  store i32 %lo, ptr %lo.addr, align 4
  %this1 = load ptr, ptr %this.addr, align 8
  %rep_hi_ = getelementptr inbounds %"class.absl::Duration", ptr %this1, i32 0, i32 0
  %0 = load i64, ptr %hi.addr, align 8
  call void @_ZN4absl8Duration5HiRepC2El(ptr noundef nonnull align 4 dereferenceable(8) %rep_hi_, i64 noundef %0)
  %rep_lo_ = getelementptr inbounds %"class.absl::Duration", ptr %this1, i32 0, i32 1
  %1 = load i32, ptr %lo.addr, align 4
  store i32 %1, ptr %rep_lo_, align 4
  ret void
}

; Function Attrs: mustprogress nounwind willreturn memory(none) uwtable
define linkonce_odr dso_local { i64, i32 } @_ZN4absl13time_internal12MakeDurationElj(i64 noundef %hi, i32 noundef %lo) #15 comdat {
entry:
  %retval = alloca %"class.absl::Duration", align 4
  %hi.addr = alloca i64, align 8
  %lo.addr = alloca i32, align 4
  %retval.coerce = alloca { i64, i32 }, align 8
  store i64 %hi, ptr %hi.addr, align 8
  store i32 %lo, ptr %lo.addr, align 4
  %0 = load i64, ptr %hi.addr, align 8
  %1 = load i32, ptr %lo.addr, align 4
  call void @_ZN4absl8DurationC2Elj(ptr noundef nonnull align 4 dereferenceable(12) %retval, i64 noundef %0, i32 noundef %1)
  call void @llvm.memcpy.p0.p0.i64(ptr align 8 %retval.coerce, ptr align 4 %retval, i64 12, i1 false)
  %2 = load { i64, i32 }, ptr %retval.coerce, align 8
  ret { i64, i32 } %2
}

; Function Attrs: mustprogress nounwind willreturn memory(none) uwtable
define linkonce_odr dso_local { i64, i32 } @_ZN4absl13time_internal12MakeDurationEll(i64 noundef %hi, i64 noundef %lo) #15 comdat {
entry:
  %retval = alloca %"class.absl::Duration", align 4
  %hi.addr = alloca i64, align 8
  %lo.addr = alloca i64, align 8
  %tmp.coerce = alloca { i64, i32 }, align 8
  %retval.coerce = alloca { i64, i32 }, align 8
  store i64 %hi, ptr %hi.addr, align 8
  store i64 %lo, ptr %lo.addr, align 8
  %0 = load i64, ptr %hi.addr, align 8
  %1 = load i64, ptr %lo.addr, align 8
  %conv = trunc i64 %1 to i32
  %call = call { i64, i32 } @_ZN4absl13time_internal12MakeDurationElj(i64 noundef %0, i32 noundef %conv) #23
  store { i64, i32 } %call, ptr %tmp.coerce, align 8
  call void @llvm.memcpy.p0.p0.i64(ptr align 4 %retval, ptr align 8 %tmp.coerce, i64 12, i1 false)
  call void @llvm.memcpy.p0.p0.i64(ptr align 8 %retval.coerce, ptr align 4 %retval, i64 12, i1 false)
  %2 = load { i64, i32 }, ptr %retval.coerce, align 8
  ret { i64, i32 } %2
}

; Function Attrs: mustprogress nounwind willreturn memory(none) uwtable
define linkonce_odr dso_local { i64, i32 } @_ZN4absl13time_internal22MakeNormalizedDurationEll(i64 noundef %sec, i64 noundef %ticks) #15 comdat {
entry:
  %retval = alloca %"class.absl::Duration", align 4
  %sec.addr = alloca i64, align 8
  %ticks.addr = alloca i64, align 8
  %tmp.coerce = alloca { i64, i32 }, align 8
  %tmp.coerce2 = alloca { i64, i32 }, align 8
  %retval.coerce = alloca { i64, i32 }, align 8
  store i64 %sec, ptr %sec.addr, align 8
  store i64 %ticks, ptr %ticks.addr, align 8
  %0 = load i64, ptr %ticks.addr, align 8
  %cmp = icmp slt i64 %0, 0
  br i1 %cmp, label %cond.true, label %cond.false

cond.true:                                        ; preds = %entry
  %1 = load i64, ptr %sec.addr, align 8
  %sub = sub nsw i64 %1, 1
  %2 = load i64, ptr %ticks.addr, align 8
  %add = add nsw i64 %2, 4000000000
  %call = call { i64, i32 } @_ZN4absl13time_internal12MakeDurationEll(i64 noundef %sub, i64 noundef %add) #23
  store { i64, i32 } %call, ptr %tmp.coerce, align 8
  call void @llvm.memcpy.p0.p0.i64(ptr align 4 %retval, ptr align 8 %tmp.coerce, i64 12, i1 false)
  br label %cond.end

cond.false:                                       ; preds = %entry
  %3 = load i64, ptr %sec.addr, align 8
  %4 = load i64, ptr %ticks.addr, align 8
  %call1 = call { i64, i32 } @_ZN4absl13time_internal12MakeDurationEll(i64 noundef %3, i64 noundef %4) #23
  store { i64, i32 } %call1, ptr %tmp.coerce2, align 8
  call void @llvm.memcpy.p0.p0.i64(ptr align 4 %retval, ptr align 8 %tmp.coerce2, i64 12, i1 false)
  br label %cond.end

cond.end:                                         ; preds = %cond.false, %cond.true
  call void @llvm.memcpy.p0.p0.i64(ptr align 8 %retval.coerce, ptr align 4 %retval, i64 12, i1 false)
  %5 = load { i64, i32 }, ptr %retval.coerce, align 8
  ret { i64, i32 } %5
}

; Function Attrs: mustprogress nounwind willreturn memory(none) uwtable
define linkonce_odr dso_local { i64, i32 } @_ZN4absl13time_internal9FromInt64ILl1000EEENS_8DurationElSt5ratioILl1EXT_EE(i64 noundef %v) #15 comdat {
entry:
  %retval = alloca %"class.absl::Duration", align 4
  %v.addr = alloca i64, align 8
  %tmp.coerce = alloca { i64, i32 }, align 8
  %retval.coerce = alloca { i64, i32 }, align 8
  store i64 %v, ptr %v.addr, align 8
  %0 = load i64, ptr %v.addr, align 8
  %div = sdiv i64 %0, 1000
  %1 = load i64, ptr %v.addr, align 8
  %rem = srem i64 %1, 1000
  %mul = mul nsw i64 %rem, 4
  %mul1 = mul nsw i64 %mul, 1000
  %mul2 = mul nsw i64 %mul1, 1000
  %mul3 = mul nsw i64 %mul2, 1000
  %div4 = sdiv i64 %mul3, 1000
  %call = call { i64, i32 } @_ZN4absl13time_internal22MakeNormalizedDurationEll(i64 noundef %div, i64 noundef %div4) #23
  store { i64, i32 } %call, ptr %tmp.coerce, align 8
  call void @llvm.memcpy.p0.p0.i64(ptr align 4 %retval, ptr align 8 %tmp.coerce, i64 12, i1 false)
  call void @llvm.memcpy.p0.p0.i64(ptr align 8 %retval.coerce, ptr align 4 %retval, i64 12, i1 false)
  %2 = load { i64, i32 }, ptr %retval.coerce, align 8
  ret { i64, i32 } %2
}

; Function Attrs: mustprogress uwtable
define linkonce_odr dso_local void @_ZN4absl8SleepForENS_8DurationE(i64 %duration.coerce0, i32 %duration.coerce1) #4 comdat {
entry:
  %duration = alloca %"class.absl::Duration", align 4
  %coerce = alloca { i64, i32 }, align 4
  %agg.tmp = alloca %"class.absl::Duration", align 4
  %agg.tmp.coerce = alloca { i64, i32 }, align 4
  %0 = getelementptr inbounds { i64, i32 }, ptr %coerce, i32 0, i32 0
  store i64 %duration.coerce0, ptr %0, align 4
  %1 = getelementptr inbounds { i64, i32 }, ptr %coerce, i32 0, i32 1
  store i32 %duration.coerce1, ptr %1, align 4
  call void @llvm.memcpy.p0.p0.i64(ptr align 4 %duration, ptr align 4 %coerce, i64 12, i1 false)
  call void @llvm.memcpy.p0.p0.i64(ptr align 4 %agg.tmp, ptr align 4 %duration, i64 12, i1 false)
  call void @llvm.memcpy.p0.p0.i64(ptr align 4 %agg.tmp.coerce, ptr align 4 %agg.tmp, i64 12, i1 false)
  %2 = getelementptr inbounds { i64, i32 }, ptr %agg.tmp.coerce, i32 0, i32 0
  %3 = load i64, ptr %2, align 4
  %4 = getelementptr inbounds { i64, i32 }, ptr %agg.tmp.coerce, i32 0, i32 1
  %5 = load i32, ptr %4, align 4
  call void @AbslInternalSleepFor(i64 %3, i32 %5)
  ret void
}

; Function Attrs: mustprogress nounwind willreturn memory(none) uwtable
define linkonce_odr dso_local { i64, i32 } @_ZN4absl12MillisecondsIiTnNSt9enable_ifIXoosr3std11is_integralIT_EE5valuesr3std7is_enumIS2_EE5valueEiE4typeELi0EEENS_8DurationES2_(i32 noundef %n) #15 comdat {
entry:
  %retval = alloca %"class.absl::Duration", align 4
  %n.addr = alloca i32, align 4
  %tmp.coerce = alloca { i64, i32 }, align 8
  %retval.coerce = alloca { i64, i32 }, align 8
  store i32 %n, ptr %n.addr, align 4
  %0 = load i32, ptr %n.addr, align 4
  %conv = sext i32 %0 to i64
  %call = call { i64, i32 } @_ZN4absl13time_internal9FromInt64ILl1000EEENS_8DurationElSt5ratioILl1EXT_EE(i64 noundef %conv) #23
  store { i64, i32 } %call, ptr %tmp.coerce, align 8
  call void @llvm.memcpy.p0.p0.i64(ptr align 4 %retval, ptr align 8 %tmp.coerce, i64 12, i1 false)
  call void @llvm.memcpy.p0.p0.i64(ptr align 8 %retval.coerce, ptr align 4 %retval, i64 12, i1 false)
  %1 = load { i64, i32 }, ptr %retval.coerce, align 8
  ret { i64, i32 } %1
}

; Function Attrs: mustprogress uwtable
define internal void @_ZZN12_GLOBAL__N_123gtest_suite_WaiterTest_13WaitTimeWokenIN4absl24synchronization_internal13PthreadWaiterEE8TestBodyEvENKUlvE_clEv(ptr noundef nonnull align 8 dereferenceable(8) %this) #4 align 2 {
entry:
  %this.addr = alloca ptr, align 8
  %agg.tmp = alloca %"class.absl::Duration", align 4
  %tmp.coerce = alloca { i64, i32 }, align 8
  %agg.tmp.coerce = alloca { i64, i32 }, align 4
  store ptr %this, ptr %this.addr, align 8
  %this1 = load ptr, ptr %this.addr, align 8
  %0 = getelementptr inbounds %class.anon.86, ptr %this1, i32 0, i32 0
  %1 = load ptr, ptr %0, align 8
  call void @_ZN4absl24synchronization_internal13PthreadWaiter4PokeEv(ptr noundef nonnull align 8 dereferenceable(96) %1)
  %call = call { i64, i32 } @_ZN4absl12MillisecondsIiTnNSt9enable_ifIXoosr3std11is_integralIT_EE5valuesr3std7is_enumIS2_EE5valueEiE4typeELi0EEENS_8DurationES2_(i32 noundef 500) #23
  store { i64, i32 } %call, ptr %tmp.coerce, align 8
  call void @llvm.memcpy.p0.p0.i64(ptr align 4 %agg.tmp, ptr align 8 %tmp.coerce, i64 12, i1 false)
  call void @llvm.memcpy.p0.p0.i64(ptr align 4 %agg.tmp.coerce, ptr align 4 %agg.tmp, i64 12, i1 false)
  %2 = getelementptr inbounds { i64, i32 }, ptr %agg.tmp.coerce, i32 0, i32 0
  %3 = load i64, ptr %2, align 4
  %4 = getelementptr inbounds { i64, i32 }, ptr %agg.tmp.coerce, i32 0, i32 1
  %5 = load i32, ptr %4, align 4
  call void @_ZN4absl8SleepForENS_8DurationE(i64 %3, i32 %5)
  %6 = getelementptr inbounds %class.anon.86, ptr %this1, i32 0, i32 0
  %7 = load ptr, ptr %6, align 8
  call void @_ZN4absl24synchronization_internal13PthreadWaiter4PostEv(ptr noundef nonnull align 8 dereferenceable(96) %7)
  ret void
}

; Function Attrs: mustprogress uwtable
define internal void @_ZSt13__invoke_implIvRZN12_GLOBAL__N_123gtest_suite_WaiterTest_13WaitTimeWokenIN4absl24synchronization_internal13PthreadWaiterEE8TestBodyEvEUlvE_JEET_St14__invoke_otherOT0_DpOT1_(ptr noundef nonnull align 8 dereferenceable(8) %__f) #4 {
entry:
  %__f.addr = alloca ptr, align 8
  store ptr %__f, ptr %__f.addr, align 8
  %0 = load ptr, ptr %__f.addr, align 8
  call void @_ZZN12_GLOBAL__N_123gtest_suite_WaiterTest_13WaitTimeWokenIN4absl24synchronization_internal13PthreadWaiterEE8TestBodyEvENKUlvE_clEv(ptr noundef nonnull align 8 dereferenceable(8) %0)
  ret void
}

; Function Attrs: mustprogress uwtable
define internal void @_ZSt8__invokeIRZN12_GLOBAL__N_123gtest_suite_WaiterTest_13WaitTimeWokenIN4absl24synchronization_internal13PthreadWaiterEE8TestBodyEvEUlvE_JEENSt15__invoke_resultIT_JDpT0_EE4typeEOSA_DpOSB_(ptr noundef nonnull align 8 dereferenceable(8) %__fn) #4 {
entry:
  %__fn.addr = alloca ptr, align 8
  store ptr %__fn, ptr %__fn.addr, align 8
  %0 = load ptr, ptr %__fn.addr, align 8
  call void @_ZSt13__invoke_implIvRZN12_GLOBAL__N_123gtest_suite_WaiterTest_13WaitTimeWokenIN4absl24synchronization_internal13PthreadWaiterEE8TestBodyEvEUlvE_JEET_St14__invoke_otherOT0_DpOT1_(ptr noundef nonnull align 8 dereferenceable(8) %0)
  ret void
}

; Function Attrs: mustprogress uwtable
define internal void @_ZSt6invokeIRZN12_GLOBAL__N_123gtest_suite_WaiterTest_13WaitTimeWokenIN4absl24synchronization_internal13PthreadWaiterEE8TestBodyEvEUlvE_JEENSt13invoke_resultIT_JDpT0_EE4typeEOSA_DpOSB_(ptr noundef nonnull align 8 dereferenceable(8) %__fn) #4 {
entry:
  %__fn.addr = alloca ptr, align 8
  store ptr %__fn, ptr %__fn.addr, align 8
  %0 = load ptr, ptr %__fn.addr, align 8
  call void @_ZSt8__invokeIRZN12_GLOBAL__N_123gtest_suite_WaiterTest_13WaitTimeWokenIN4absl24synchronization_internal13PthreadWaiterEE8TestBodyEvEUlvE_JEENSt15__invoke_resultIT_JDpT0_EE4typeEOSA_DpOSB_(ptr noundef nonnull align 8 dereferenceable(8) %0)
  ret void
}

; Function Attrs: mustprogress nounwind uwtable
define internal noundef ptr @_ZSt7launderIZN12_GLOBAL__N_123gtest_suite_WaiterTest_13WaitTimeWokenIN4absl24synchronization_internal13PthreadWaiterEE8TestBodyEvEUlvE_EPT_S9_(ptr noundef %__p) #7 {
entry:
  %__p.addr = alloca ptr, align 8
  store ptr %__p, ptr %__p.addr, align 8
  %0 = load ptr, ptr %__p.addr, align 8
  ret ptr %0
}

; Function Attrs: mustprogress uwtable
define internal void @_ZN4absl22internal_any_invocable7InvokeRIvRZN12_GLOBAL__N_123gtest_suite_WaiterTest_13WaitTimeWokenINS_24synchronization_internal13PthreadWaiterEE8TestBodyEvEUlvE_JEvEEvOT0_DpOT1_(ptr noundef nonnull align 8 dereferenceable(8) %f) #4 {
entry:
  %f.addr = alloca ptr, align 8
  store ptr %f, ptr %f.addr, align 8
  %0 = load ptr, ptr %f.addr, align 8
  call void @_ZSt6invokeIRZN12_GLOBAL__N_123gtest_suite_WaiterTest_13WaitTimeWokenIN4absl24synchronization_internal13PthreadWaiterEE8TestBodyEvEUlvE_JEENSt13invoke_resultIT_JDpT0_EE4typeEOSA_DpOSB_(ptr noundef nonnull align 8 dereferenceable(8) %0)
  ret void
}

; Function Attrs: mustprogress nounwind uwtable
define internal noundef nonnull align 8 dereferenceable(8) ptr @_ZN4absl22internal_any_invocable20ObjectInLocalStorageIZN12_GLOBAL__N_123gtest_suite_WaiterTest_13WaitTimeWokenINS_24synchronization_internal13PthreadWaiterEE8TestBodyEvEUlvE_EERT_PNS0_15TypeErasedStateE(ptr noundef %state) #7 {
entry:
  %state.addr = alloca ptr, align 8
  store ptr %state, ptr %state.addr, align 8
  %0 = load ptr, ptr %state.addr, align 8
  %call = call noundef ptr @_ZSt7launderIZN12_GLOBAL__N_123gtest_suite_WaiterTest_13WaitTimeWokenIN4absl24synchronization_internal13PthreadWaiterEE8TestBodyEvEUlvE_EPT_S9_(ptr noundef %0) #3
  ret ptr %call
}

; Function Attrs: mustprogress uwtable
define internal void @_ZN4absl22internal_any_invocable12LocalInvokerILb0EvRZN12_GLOBAL__N_123gtest_suite_WaiterTest_13WaitTimeWokenINS_24synchronization_internal13PthreadWaiterEE8TestBodyEvEUlvE_JEEET0_PNS0_15TypeErasedStateEDpNS0_18ForwardedParameterIT2_E4typeE(ptr noundef %state) #4 {
entry:
  %state.addr = alloca ptr, align 8
  %f = alloca ptr, align 8
  store ptr %state, ptr %state.addr, align 8
  %0 = load ptr, ptr %state.addr, align 8
  %call = call noundef nonnull align 8 dereferenceable(8) ptr @_ZN4absl22internal_any_invocable20ObjectInLocalStorageIZN12_GLOBAL__N_123gtest_suite_WaiterTest_13WaitTimeWokenINS_24synchronization_internal13PthreadWaiterEE8TestBodyEvEUlvE_EERT_PNS0_15TypeErasedStateE(ptr noundef %0)
  store ptr %call, ptr %f, align 8
  %1 = load ptr, ptr %f, align 8
  call void @_ZN4absl22internal_any_invocable7InvokeRIvRZN12_GLOBAL__N_123gtest_suite_WaiterTest_13WaitTimeWokenINS_24synchronization_internal13PthreadWaiterEE8TestBodyEvEUlvE_JEvEEvOT0_DpOT1_(ptr noundef nonnull align 8 dereferenceable(8) %1)
  ret void
}